; ModuleID = 'bench/git/original/fuzz-commit-graph.ll'
source_filename = "bench/git/original/fuzz-commit-graph.ll"
target datalayout = "e-m:e-p270:32:32-p271:32:32-p272:64:64-i64:64-i128:128-f80:128-n8:16:32:64-S128"
target triple = "x86_64-pc-linux-gnu"

@the_repository = external local_unnamed_addr global ptr, align 8

; Function Attrs: nounwind uwtable
define dso_local noundef i32 @LLVMFuzzerTestOneInput(ptr noundef %0, i64 noundef %1) local_unnamed_addr #0 {
  %3 = load ptr, ptr @the_repository, align 8, !tbaa !4
  tail call void @initialize_repository(ptr noundef %3) #2
  %4 = load ptr, ptr @the_repository, align 8, !tbaa !4
  tail call void @repo_set_hash_algo(ptr noundef %4, i32 noundef 1) #2
  %5 = load ptr, ptr @the_repository, align 8, !tbaa !4
  %6 = getelementptr inbounds nuw i8, ptr %5, i64 264
  store i32 2, ptr %6, align 8, !tbaa !9
  %7 = getelementptr inbounds nuw i8, ptr %5, i64 268
  store i32 1, ptr %7, align 4, !tbaa !30
  %8 = getelementptr inbounds nuw i8, ptr %5, i64 256
  %9 = tail call ptr @parse_commit_graph(ptr noundef nonnull %8, ptr noundef %0, i64 noundef %1) #2
  %10 = load ptr, ptr @the_repository, align 8, !tbaa !4
  tail call void @repo_clear(ptr noundef %10) #2
  tail call void @free_commit_graph(ptr noundef %9) #2
  ret i32 0
}

declare void @initialize_repository(ptr noundef) local_unnamed_addr #1

declare void @repo_set_hash_algo(ptr noundef, i32 noundef) local_unnamed_addr #1

declare ptr @parse_commit_graph(ptr noundef, ptr noundef, i64 noundef) local_unnamed_addr #1

declare void @repo_clear(ptr noundef) local_unnamed_addr #1

declare void @free_commit_graph(ptr noundef) local_unnamed_addr #1


!llvm.module.flags = !{!0, !1, !2, !3}

!0 = !{i32 1, !"wchar_size", i32 4}
!1 = !{i32 8, !"PIC Level", i32 2}
!2 = !{i32 7, !"PIE Level", i32 2}
!3 = !{i32 7, !"uwtable", i32 2}
!4 = !{!5, !5, i64 0}
!5 = !{!"p1 _ZTS10repository", !6, i64 0}
!6 = !{!"any pointer", !7, i64 0}
!7 = !{!"omnipotent char", !8, i64 0}
!8 = !{!"Simple C/C++ TBAA"}
!9 = !{!10, !18, i64 264}
!10 = !{!"repository", !11, i64 0, !11, i64 8, !12, i64 16, !13, i64 24, !14, i64 32, !15, i64 40, !15, i64 104, !20, i64 168, !11, i64 224, !11, i64 232, !11, i64 240, !11, i64 248, !21, i64 256, !24, i64 368, !25, i64 376, !26, i64 384, !27, i64 392, !28, i64 400, !28, i64 408, !18, i64 416, !18, i64 420, !18, i64 424, !11, i64 432, !29, i64 440, !18, i64 448, !18, i64 452, !18, i64 456}
!11 = !{!"p1 omnipotent char", !6, i64 0}
!12 = !{!"p1 _ZTS16raw_object_store", !6, i64 0}
!13 = !{!"p1 _ZTS18parsed_object_pool", !6, i64 0}
!14 = !{!"p1 _ZTS9ref_store", !6, i64 0}
!15 = !{!"strmap", !16, i64 0, !19, i64 48, !18, i64 56}
!16 = !{!"hashmap", !17, i64 0, !6, i64 8, !6, i64 16, !18, i64 24, !18, i64 28, !18, i64 32, !18, i64 36, !18, i64 40}
!17 = !{!"p2 _ZTS13hashmap_entry", !6, i64 0}
!18 = !{!"int", !7, i64 0}
!19 = !{!"p1 _ZTS8mem_pool", !6, i64 0}
!20 = !{!"repo_path_cache", !11, i64 0, !11, i64 8, !11, i64 16, !11, i64 24, !11, i64 32, !11, i64 40, !11, i64 48}
!21 = !{!"repo_settings", !18, i64 0, !18, i64 4, !18, i64 8, !18, i64 12, !18, i64 16, !18, i64 20, !18, i64 24, !18, i64 28, !18, i64 32, !18, i64 36, !18, i64 40, !18, i64 44, !22, i64 48, !18, i64 56, !18, i64 60, !18, i64 64, !18, i64 68, !18, i64 72, !18, i64 76, !18, i64 80, !23, i64 88, !23, i64 96, !23, i64 104}
!22 = !{!"p1 _ZTS18fsmonitor_settings", !6, i64 0}
!23 = !{!"long", !7, i64 0}
!24 = !{!"p1 _ZTS10config_set", !6, i64 0}
!25 = !{!"p1 _ZTS15submodule_cache", !6, i64 0}
!26 = !{!"p1 _ZTS11index_state", !6, i64 0}
!27 = !{!"p1 _ZTS12remote_state", !6, i64 0}
!28 = !{!"p1 _ZTS13git_hash_algo", !6, i64 0}
!29 = !{!"p1 _ZTS22promisor_remote_config", !6, i64 0}
!30 = !{!10, !18, i64 268}
